; Function Attrs: mustprogress uwtable
define void @_ZN8QuantLib14FdmExtOUJumpOp7setTimeEdd(ptr nocapture noundef nonnull readonly align 8 dereferenceable(336) %this, double noundef %t1, double noundef %t2) unnamed_addr #6 align 2 {
entry:
  %ouOp_ = getelementptr inbounds nuw i8, ptr %this, i64 128
  %0 = load ptr, ptr %ouOp_, align 8, !tbaa !34
  %cmp.not.i = icmp eq ptr %0, null
  br i1 %cmp.not.i, label %cond.false.i, label %_ZNK5boost10shared_ptrIN8QuantLib30FdmExtendedOrnsteinUhlenbeckOpEEptEv.exit, !prof !27

cond.false.i:                                     ; preds = %entry
  tail call void @_ZN5boost16assertion_failedEPKcS1_S1_l(ptr noundef nonnull @.str.21, ptr noundef nonnull @__PRETTY_FUNCTION__._ZNK5boost10shared_ptrIN8QuantLib30FdmExtendedOrnsteinUhlenbeckOpEEptEv, ptr noundef nonnull @.str.22, i64 noundef 784)
  %.pre.i = load ptr, ptr %ouOp_, align 8, !tbaa !34
  br label %_ZNK5boost10shared_ptrIN8QuantLib30FdmExtendedOrnsteinUhlenbeckOpEEptEv.exit

_ZNK5boost10shared_ptrIN8QuantLib30FdmExtendedOrnsteinUhlenbeckOpEEptEv.exit: ; preds = %entry, %cond.false.i
  %1 = phi ptr [ %0, %entry ], [ %.pre.i, %cond.false.i ]
  %vtable = load ptr, ptr %1, align 8, !tbaa !14
  %vfn = getelementptr inbounds i8, ptr %vtable, i64 40
  %2 = load ptr, ptr %vfn, align 8
  tail call void %2(ptr noundef nonnull align 8 dereferenceable(344) %1, double noundef %t1, double noundef %t2)
  ret void
}